target datalayout = "e-m:e-p270:32:32-p271:32:32-p272:64:64-i64:64-i128:128-f80:128-n8:16:32:64-S128"
target triple = "x86_64-pc-linux-gnu"

%struct._spdu_uds_mapping = type { i32, i32, i8, i32, i32 }

@.str.307 = private unnamed_addr constant [25 x i8] c"UDS IDs are only uint16!\00", align 1
@.str.308 = private unnamed_addr constant [29 x i8] c"UDS Services are only uint8!\00", align 1

; Function Attrs: null_pointer_is_valid sspstrong uwtable
define internal zeroext i1 @update_spdu_uds_mapping(ptr noundef %0, ptr noundef %1) #0 {
  %3 = alloca i1, align 1
  %4 = alloca ptr, align 8
  %5 = alloca ptr, align 8
  %6 = alloca ptr, align 8
  %7 = alloca i32, align 4
  store ptr %0, ptr %4, align 8
  store ptr %1, ptr %5, align 8
  call void @llvm.lifetime.start.p0(i64 8, ptr %6) #14
  %8 = load ptr, ptr %4, align 8
  store ptr %8, ptr %6, align 8
  %9 = load ptr, ptr %6, align 8
  %10 = getelementptr inbounds nuw %struct._spdu_uds_mapping, ptr %9, i32 0, i32 3
  %11 = load i32, ptr %10, align 4
  %12 = icmp ugt i32 %11, 65535
  br i1 %12, label %13, label %16

13:                                               ; preds = %2
  %14 = call noalias ptr @g_strdup(ptr noundef @.str.307)
  %15 = load ptr, ptr %5, align 8
  store ptr %14, ptr %15, align 8
  store i1 false, ptr %3, align 1
  store i32 1, ptr %7, align 4
  br label %25

16:                                               ; preds = %2
  %17 = load ptr, ptr %6, align 8
  %18 = getelementptr inbounds nuw %struct._spdu_uds_mapping, ptr %17, i32 0, i32 1
  %19 = load i32, ptr %18, align 4
  %20 = icmp ugt i32 %19, 255
  br i1 %20, label %21, label %24

21:                                               ; preds = %16
  %22 = call noalias ptr @g_strdup(ptr noundef @.str.308)
  %23 = load ptr, ptr %5, align 8
  store ptr %22, ptr %23, align 8
  store i1 false, ptr %3, align 1
  store i32 1, ptr %7, align 4
  br label %25

24:                                               ; preds = %16
  store i1 true, ptr %3, align 1
  store i32 1, ptr %7, align 4
  br label %25

25:                                               ; preds = %24, %21, %13
  call void @llvm.lifetime.end.p0(i64 8, ptr %6) #14
  %26 = load i1, ptr %3, align 1
  ret i1 %26
}