; Function Attrs: null_pointer_is_valid sspstrong uwtable
define internal noundef zeroext i1 @update_spdu_uds_mapping(ptr noundef readonly captures(none) %0, ptr noundef writeonly captures(none) %1) #0 {
  %3 = getelementptr inbounds nuw i8, ptr %0, i64 12
  %4 = load i32, ptr %3, align 4
  %5 = icmp ugt i32 %4, 65535
  br i1 %5, label %.sink.split, label %6

6:                                                ; preds = %2
  %7 = getelementptr inbounds nuw i8, ptr %0, i64 4
  %8 = load i32, ptr %7, align 4
  %9 = icmp ugt i32 %8, 255
  br i1 %9, label %.sink.split, label %11

.sink.split:                                      ; preds = %6, %2
  %.str.308.sink = phi ptr [ @.str.307, %2 ], [ @.str.308, %6 ]
  %10 = tail call noalias ptr @g_strdup(ptr noundef nonnull %.str.308.sink)
  store ptr %10, ptr %1, align 8
  br label %11

11:                                               ; preds = %.sink.split, %6
  %.0 = phi i1 [ true, %6 ], [ false, %.sink.split ]
  ret i1 %.0
}